; Function Attrs: mustprogress uwtable
define hidden noundef i32 @_ZNK2cv10ExifReader6getU32Em(ptr noundef nonnull readonly align 8 captures(none) dereferenceable(76) %0, i64 noundef %1) local_unnamed_addr #5 align 2 {
  %3 = add i64 %1, 3
  %4 = getelementptr inbounds nuw i8, ptr %0, i64 8
  %5 = load ptr, ptr %4, align 8, !tbaa !54
  %6 = load ptr, ptr %0, align 8, !tbaa !46
  %7 = ptrtoint ptr %5 to i64
  %8 = ptrtoint ptr %6 to i64
  %9 = sub i64 %7, %8
  %.not = icmp ult i64 %3, %9
  br i1 %.not, label %12, label %10

10:                                               ; preds = %2
  %11 = tail call ptr @__cxa_allocate_exception(i64 1) #25
  tail call void @__cxa_throw(ptr %11, ptr nonnull @_ZTIN12_GLOBAL__N_116ExifParsingErrorE, ptr null) #26
  unreachable

12:                                               ; preds = %2
  %13 = getelementptr inbounds nuw i8, ptr %0, i64 72
  %14 = load i32, ptr %13, align 8, !tbaa !34
  %15 = icmp eq i32 %14, 73
  %16 = getelementptr i8, ptr %6, i64 %1
  %17 = load i8, ptr %16, align 1, !tbaa !12
  %18 = zext i8 %17 to i32
  br i1 %15, label %19, label %35

19:                                               ; preds = %12
  %20 = getelementptr i8, ptr %16, i64 1
  %21 = load i8, ptr %20, align 1, !tbaa !12
  %22 = zext i8 %21 to i32
  %23 = shl nuw nsw i32 %22, 8
  %24 = getelementptr i8, ptr %16, i64 2
  %25 = load i8, ptr %24, align 1, !tbaa !12
  %26 = zext i8 %25 to i32
  %27 = shl nuw nsw i32 %26, 16
  %28 = or disjoint i32 %23, %27
  %29 = getelementptr inbounds nuw i8, ptr %6, i64 %3
  %30 = load i8, ptr %29, align 1, !tbaa !12
  %31 = zext i8 %30 to i32
  %32 = shl nuw i32 %31, 24
  %33 = or disjoint i32 %28, %32
  %34 = or disjoint i32 %33, %18
  br label %51

35:                                               ; preds = %12
  %36 = shl nuw i32 %18, 24
  %37 = getelementptr i8, ptr %16, i64 1
  %38 = load i8, ptr %37, align 1, !tbaa !12
  %39 = zext i8 %38 to i32
  %40 = shl nuw nsw i32 %39, 16
  %41 = or disjoint i32 %40, %36
  %42 = getelementptr i8, ptr %16, i64 2
  %43 = load i8, ptr %42, align 1, !tbaa !12
  %44 = zext i8 %43 to i32
  %45 = shl nuw nsw i32 %44, 8
  %46 = or disjoint i32 %41, %45
  %47 = getelementptr inbounds nuw i8, ptr %6, i64 %3
  %48 = load i8, ptr %47, align 1, !tbaa !12
  %49 = zext i8 %48 to i32
  %50 = or disjoint i32 %46, %49
  br label %51

51:                                               ; preds = %35, %19
  %.0 = phi i32 [ %34, %19 ], [ %50, %35 ]
  ret i32 %.0
}